target datalayout = "e-m:e-p270:32:32-p271:32:32-p272:64:64-i64:64-i128:128-f80:128-n8:16:32:64-S128"
target triple = "x86_64-pc-linux-gnu"

%struct.DdManager = type { %struct.DdNode, ptr, ptr, ptr, ptr, ptr, ptr, ptr, i32, i32, double, double, double, i32, i32, i32, i32, i32, i32, ptr, ptr, %struct.DdSubtable, i32, i32, i32, i32, i32, i32, i32, double, i32, i32, i32, ptr, i64, double, i32, ptr, ptr, ptr, ptr, ptr, ptr, ptr, i32, ptr, ptr, ptr, ptr, ptr, ptr, i32, i32, i32, double, i32, i32, i32, i32, double, double, i32, i32, i32, i32, i32, i32, i32, i32, i32, ptr, ptr, i32, i32, i32, i32, i32, i32, ptr, ptr, ptr, ptr, ptr, ptr, ptr, ptr, i32, i64, i64, i64, i32, i64, i64, double, double, double, double, double, double, i32, ptr, ptr, i64 }
%struct.DdNode = type { i32, i32, ptr, %union.anon, i64 }
%union.anon = type { %struct.DdChildren }
%struct.DdChildren = type { ptr, ptr }
%struct.DdSubtable = type { ptr, i32, i32, i32, i32, i32, i32, i32, i32, i32, i32, i32 }

@background = internal global ptr null, align 8
@zero = internal global ptr null, align 8
@.str = private unnamed_addr constant [2 x i8] c"0\00", align 1
@.str.1 = private unnamed_addr constant [2 x i8] c"1\00", align 1
@.str.2 = private unnamed_addr constant [2 x i8] c"-\00", align 1
@.str.18 = private unnamed_addr constant [6 x i8] c" % g\0A\00", align 1

; Function Attrs: nounwind uwtable
define internal void @ddPrintMintermAux(ptr noundef %0, ptr noundef %1, ptr noundef %2) #0 {
  %4 = alloca ptr, align 8
  %5 = alloca ptr, align 8
  %6 = alloca ptr, align 8
  %7 = alloca ptr, align 8
  %8 = alloca ptr, align 8
  %9 = alloca ptr, align 8
  %10 = alloca i32, align 4
  %11 = alloca i32, align 4
  %12 = alloca i32, align 4
  store ptr %0, ptr %4, align 8
  store ptr %1, ptr %5, align 8
  store ptr %2, ptr %6, align 8
  %13 = load ptr, ptr %5, align 8
  %14 = ptrtoint ptr %13 to i64
  %15 = and i64 %14, -2
  %16 = inttoptr i64 %15 to ptr
  store ptr %16, ptr %7, align 8
  %17 = load ptr, ptr %7, align 8
  %18 = getelementptr inbounds %struct.DdNode, ptr %17, i32 0, i32 0
  %19 = load i32, ptr %18, align 8
  %20 = icmp eq i32 %19, 2147483647
  br i1 %20, label %21, label %76

21:                                               ; preds = %3
  %22 = load ptr, ptr %5, align 8
  %23 = load ptr, ptr @background, align 8
  %24 = icmp ne ptr %22, %23
  br i1 %24, label %25, label %75

25:                                               ; preds = %21
  %26 = load ptr, ptr %5, align 8
  %27 = load ptr, ptr @zero, align 8
  %28 = icmp ne ptr %26, %27
  br i1 %28, label %29, label %75

29:                                               ; preds = %25
  store i32 0, ptr %10, align 4
  br label %30

30:                                               ; preds = %64, %29
  %31 = load i32, ptr %10, align 4
  %32 = load ptr, ptr %4, align 8
  %33 = getelementptr inbounds %struct.DdManager, ptr %32, i32 0, i32 15
  %34 = load i32, ptr %33, align 8
  %35 = icmp slt i32 %31, %34
  br i1 %35, label %36, label %67

36:                                               ; preds = %30
  %37 = load ptr, ptr %6, align 8
  %38 = load i32, ptr %10, align 4
  %39 = sext i32 %38 to i64
  %40 = getelementptr inbounds i32, ptr %37, i64 %39
  %41 = load i32, ptr %40, align 4
  store i32 %41, ptr %11, align 4
  %42 = load i32, ptr %11, align 4
  %43 = icmp eq i32 %42, 0
  br i1 %43, label %44, label %49

44:                                               ; preds = %36
  %45 = load ptr, ptr %4, align 8
  %46 = getelementptr inbounds %struct.DdManager, ptr %45, i32 0, i32 84
  %47 = load ptr, ptr %46, align 8
  %48 = call i32 (ptr, ptr, ...) @fprintf(ptr noundef %47, ptr noundef @.str) #6
  br label %63

49:                                               ; preds = %36
  %50 = load i32, ptr %11, align 4
  %51 = icmp eq i32 %50, 1
  br i1 %51, label %52, label %57

52:                                               ; preds = %49
  %53 = load ptr, ptr %4, align 8
  %54 = getelementptr inbounds %struct.DdManager, ptr %53, i32 0, i32 84
  %55 = load ptr, ptr %54, align 8
  %56 = call i32 (ptr, ptr, ...) @fprintf(ptr noundef %55, ptr noundef @.str.1) #6
  br label %62

57:                                               ; preds = %49
  %58 = load ptr, ptr %4, align 8
  %59 = getelementptr inbounds %struct.DdManager, ptr %58, i32 0, i32 84
  %60 = load ptr, ptr %59, align 8
  %61 = call i32 (ptr, ptr, ...) @fprintf(ptr noundef %60, ptr noundef @.str.2) #6
  br label %62

62:                                               ; preds = %57, %52
  br label %63

63:                                               ; preds = %62, %44
  br label %64

64:                                               ; preds = %63
  %65 = load i32, ptr %10, align 4
  %66 = add nsw i32 %65, 1
  store i32 %66, ptr %10, align 4
  br label %30, !llvm.loop !6

67:                                               ; preds = %30
  %68 = load ptr, ptr %4, align 8
  %69 = getelementptr inbounds %struct.DdManager, ptr %68, i32 0, i32 84
  %70 = load ptr, ptr %69, align 8
  %71 = load ptr, ptr %5, align 8
  %72 = getelementptr inbounds %struct.DdNode, ptr %71, i32 0, i32 3
  %73 = load double, ptr %72, align 8
  %74 = call i32 (ptr, ptr, ...) @fprintf(ptr noundef %70, ptr noundef @.str.18, double noundef %73) #6
  br label %75

75:                                               ; preds = %67, %25, %21
  br label %121

76:                                               ; preds = %3
  %77 = load ptr, ptr %7, align 8
  %78 = getelementptr inbounds %struct.DdNode, ptr %77, i32 0, i32 3
  %79 = getelementptr inbounds %struct.DdChildren, ptr %78, i32 0, i32 0
  %80 = load ptr, ptr %79, align 8
  store ptr %80, ptr %8, align 8
  %81 = load ptr, ptr %7, align 8
  %82 = getelementptr inbounds %struct.DdNode, ptr %81, i32 0, i32 3
  %83 = getelementptr inbounds %struct.DdChildren, ptr %82, i32 0, i32 1
  %84 = load ptr, ptr %83, align 8
  store ptr %84, ptr %9, align 8
  %85 = load ptr, ptr %5, align 8
  %86 = ptrtoint ptr %85 to i64
  %87 = and i64 %86, 1
  %88 = trunc i64 %87 to i32
  %89 = icmp ne i32 %88, 0
  br i1 %89, label %90, label %99

90:                                               ; preds = %76
  %91 = load ptr, ptr %8, align 8
  %92 = ptrtoint ptr %91 to i64
  %93 = xor i64 %92, 1
  %94 = inttoptr i64 %93 to ptr
  store ptr %94, ptr %8, align 8
  %95 = load ptr, ptr %9, align 8
  %96 = ptrtoint ptr %95 to i64
  %97 = xor i64 %96, 1
  %98 = inttoptr i64 %97 to ptr
  store ptr %98, ptr %9, align 8
  br label %99

99:                                               ; preds = %90, %76
  %100 = load ptr, ptr %7, align 8
  %101 = getelementptr inbounds %struct.DdNode, ptr %100, i32 0, i32 0
  %102 = load i32, ptr %101, align 8
  store i32 %102, ptr %12, align 4
  %103 = load ptr, ptr %6, align 8
  %104 = load i32, ptr %12, align 4
  %105 = sext i32 %104 to i64
  %106 = getelementptr inbounds i32, ptr %103, i64 %105
  store i32 0, ptr %106, align 4
  %107 = load ptr, ptr %4, align 8
  %108 = load ptr, ptr %9, align 8
  %109 = load ptr, ptr %6, align 8
  call void @ddPrintMintermAux(ptr noundef %107, ptr noundef %108, ptr noundef %109)
  %110 = load ptr, ptr %6, align 8
  %111 = load i32, ptr %12, align 4
  %112 = sext i32 %111 to i64
  %113 = getelementptr inbounds i32, ptr %110, i64 %112
  store i32 1, ptr %113, align 4
  %114 = load ptr, ptr %4, align 8
  %115 = load ptr, ptr %8, align 8
  %116 = load ptr, ptr %6, align 8
  call void @ddPrintMintermAux(ptr noundef %114, ptr noundef %115, ptr noundef %116)
  %117 = load ptr, ptr %6, align 8
  %118 = load i32, ptr %12, align 4
  %119 = sext i32 %118 to i64
  %120 = getelementptr inbounds i32, ptr %117, i64 %119
  store i32 2, ptr %120, align 4
  br label %121

121:                                              ; preds = %99, %75
  ret void
}