; Function Attrs: nofree nounwind uwtable
define internal fastcc void @ddPrintMintermAux(ptr noundef %0, ptr noundef %1, ptr noundef nonnull %2) unnamed_addr #2 {
  %4 = ptrtoint ptr %1 to i64
  %5 = and i64 %4, -2
  %6 = inttoptr i64 %5 to ptr
  %7 = load i32, ptr %6, align 8
  %8 = icmp eq i32 %7, 2147483647
  br i1 %8, label %9, label %28

9:                                                ; preds = %3
  %10 = load ptr, ptr @background, align 8
  %.not37 = icmp eq ptr %1, %10
  %11 = load ptr, ptr @zero, align 8
  %.not38 = icmp eq ptr %1, %11
  %or.cond = select i1 %.not37, i1 true, i1 %.not38
  br i1 %or.cond, label %common.ret45, label %.preheader

.preheader:                                       ; preds = %9
  %12 = getelementptr inbounds nuw i8, ptr %0, i64 136
  %13 = load i32, ptr %12, align 8
  %14 = icmp sgt i32 %13, 0
  br i1 %14, label %.lr.ph, label %._crit_edge

.lr.ph:                                           ; preds = %.preheader
  %15 = getelementptr inbounds nuw i8, ptr %0, i64 608
  br label %16

16:                                               ; preds = %.lr.ph, %16
  %indvars.iv = phi i64 [ 0, %.lr.ph ], [ %indvars.iv.next, %16 ]
  %17 = getelementptr inbounds nuw i32, ptr %2, i64 %indvars.iv
  %18 = load i32, ptr %17, align 4
  %19 = load ptr, ptr %15, align 8
  %switch.selectcmp = icmp eq i32 %18, 1
  %switch.select = select i1 %switch.selectcmp, i32 49, i32 45
  %switch.selectcmp43 = icmp eq i32 %18, 0
  %switch.select44 = select i1 %switch.selectcmp43, i32 48, i32 %switch.select
  %fputc40 = tail call i32 @fputc(i32 %switch.select44, ptr %19)
  %indvars.iv.next = add nuw nsw i64 %indvars.iv, 1
  %20 = load i32, ptr %12, align 8
  %21 = sext i32 %20 to i64
  %22 = icmp slt i64 %indvars.iv.next, %21
  br i1 %22, label %16, label %._crit_edge, !llvm.loop !6

._crit_edge:                                      ; preds = %16, %.preheader
  %23 = getelementptr inbounds nuw i8, ptr %0, i64 608
  %24 = load ptr, ptr %23, align 8
  %25 = getelementptr inbounds nuw i8, ptr %1, i64 16
  %26 = load double, ptr %25, align 8
  %27 = tail call i32 (ptr, ptr, ...) @fprintf(ptr noundef %24, ptr noundef nonnull @.str.18, double noundef %26) #23
  br label %common.ret45

common.ret45:                                     ; preds = %9, %._crit_edge, %28
  ret void

28:                                               ; preds = %3
  %29 = getelementptr inbounds nuw i8, ptr %6, i64 16
  %30 = load ptr, ptr %29, align 8
  %31 = getelementptr inbounds nuw i8, ptr %6, i64 24
  %32 = load ptr, ptr %31, align 8
  %33 = and i64 %4, 1
  %.not = icmp eq i64 %33, 0
  %34 = ptrtoint ptr %30 to i64
  %35 = xor i64 %34, 1
  %36 = inttoptr i64 %35 to ptr
  %37 = ptrtoint ptr %32 to i64
  %38 = xor i64 %37, 1
  %39 = inttoptr i64 %38 to ptr
  %.033 = select i1 %.not, ptr %32, ptr %39
  %.0 = select i1 %.not, ptr %30, ptr %36
  %40 = sext i32 %7 to i64
  %41 = getelementptr inbounds i32, ptr %2, i64 %40
  store i32 0, ptr %41, align 4
  tail call fastcc void @ddPrintMintermAux(ptr noundef %0, ptr noundef %.033, ptr noundef %2)
  store i32 1, ptr %41, align 4
  tail call fastcc void @ddPrintMintermAux(ptr noundef %0, ptr noundef %.0, ptr noundef %2)
  store i32 2, ptr %41, align 4
  br label %common.ret45
}